target datalayout = "e-m:e-p270:32:32-p271:32:32-p272:64:64-i64:64-i128:128-f80:128-n8:16:32:64-S128"
target triple = "x86_64-pc-linux-gnu"

; Function Attrs: nounwind uwtable
define void @Dau_DsdRemoveBraces(ptr noundef %0, ptr noundef %1) #0 {
  %3 = alloca ptr, align 8
  %4 = alloca ptr, align 8
  %5 = alloca ptr, align 8
  %6 = alloca ptr, align 8
  store ptr %0, ptr %3, align 8
  store ptr %1, ptr %4, align 8
  %7 = load ptr, ptr %3, align 8
  store ptr %7, ptr %6, align 8
  %8 = load ptr, ptr %3, align 8
  %9 = getelementptr inbounds i8, ptr %8, i64 1
  %10 = load i8, ptr %9, align 1
  %11 = sext i8 %10 to i32
  %12 = icmp eq i32 %11, 0
  br i1 %12, label %13, label %14

13:                                               ; preds = %2
  br label %56

14:                                               ; preds = %2
  %15 = load ptr, ptr %3, align 8
  %16 = load ptr, ptr %4, align 8
  call void @Dau_DsdRemoveBraces_rec(ptr noundef %15, ptr noundef %3, ptr noundef %16)
  %17 = load ptr, ptr %6, align 8
  store ptr %17, ptr %5, align 8
  br label %18

18:                                               ; preds = %51, %14
  %19 = load ptr, ptr %6, align 8
  %20 = load i8, ptr %19, align 1
  %21 = icmp ne i8 %20, 0
  br i1 %21, label %22, label %54

22:                                               ; preds = %18
  %23 = load ptr, ptr %6, align 8
  %24 = load i8, ptr %23, align 1
  %25 = sext i8 %24 to i32
  %26 = icmp ne i32 %25, 32
  br i1 %26, label %27, label %50

27:                                               ; preds = %22
  %28 = load ptr, ptr %6, align 8
  %29 = load i8, ptr %28, align 1
  %30 = sext i8 %29 to i32
  %31 = icmp eq i32 %30, 33
  br i1 %31, label %32, label %45

32:                                               ; preds = %27
  %33 = load ptr, ptr %5, align 8
  %34 = getelementptr inbounds i8, ptr %33, i64 -1
  %35 = load i8, ptr %34, align 1
  %36 = sext i8 %35 to i32
  %37 = icmp eq i32 %36, 33
  br i1 %37, label %38, label %45

38:                                               ; preds = %32
  %39 = load ptr, ptr %6, align 8
  %40 = load ptr, ptr %5, align 8
  %41 = icmp ne ptr %39, %40
  br i1 %41, label %42, label %45

42:                                               ; preds = %38
  %43 = load ptr, ptr %5, align 8
  %44 = getelementptr inbounds i8, ptr %43, i32 -1
  store ptr %44, ptr %5, align 8
  br label %51

45:                                               ; preds = %38, %32, %27
  %46 = load ptr, ptr %6, align 8
  %47 = load i8, ptr %46, align 1
  %48 = load ptr, ptr %5, align 8
  %49 = getelementptr inbounds i8, ptr %48, i32 1
  store ptr %49, ptr %5, align 8
  store i8 %47, ptr %48, align 1
  br label %50

50:                                               ; preds = %45, %22
  br label %51

51:                                               ; preds = %50, %42
  %52 = load ptr, ptr %6, align 8
  %53 = getelementptr inbounds i8, ptr %52, i32 1
  store ptr %53, ptr %6, align 8
  br label %18, !llvm.loop !17

54:                                               ; preds = %18
  %55 = load ptr, ptr %5, align 8
  store i8 0, ptr %55, align 1
  br label %56

56:                                               ; preds = %54, %13
  ret void
}