; Function Attrs: nofree nosync nounwind memory(readwrite, inaccessiblemem: none) uwtable
define void @Dau_DsdRemoveBraces(ptr noundef %0, ptr noundef readonly captures(none) %1) local_unnamed_addr #1 {
  %3 = alloca ptr, align 8
  store ptr %0, ptr %3, align 8
  %4 = getelementptr inbounds nuw i8, ptr %0, i64 1
  %5 = load i8, ptr %4, align 1
  %6 = icmp eq i8 %5, 0
  br i1 %6, label %19, label %7

7:                                                ; preds = %2
  call void @Dau_DsdRemoveBraces_rec(ptr noundef nonnull %0, ptr noundef nonnull %3, ptr noundef %1)
  br label %8

8:                                                ; preds = %16, %7
  %.013 = phi ptr [ %0, %7 ], [ %.1, %16 ]
  %.0 = phi ptr [ %0, %7 ], [ %17, %16 ]
  %9 = load i8, ptr %.0, align 1
  switch i8 %9, label %14 [
    i8 0, label %18
    i8 32, label %16
    i8 33, label %10
  ]

10:                                               ; preds = %8
  %11 = getelementptr inbounds i8, ptr %.013, i64 -1
  %12 = load i8, ptr %11, align 1
  %13 = icmp ne i8 %12, 33
  %.not17 = icmp eq ptr %.0, %.013
  %or.cond = select i1 %13, i1 true, i1 %.not17
  br i1 %or.cond, label %14, label %16

14:                                               ; preds = %8, %10
  %15 = getelementptr inbounds nuw i8, ptr %.013, i64 1
  store i8 %9, ptr %.013, align 1
  br label %16

16:                                               ; preds = %10, %8, %14
  %.1 = phi ptr [ %15, %14 ], [ %.013, %8 ], [ %11, %10 ]
  %17 = getelementptr inbounds nuw i8, ptr %.0, i64 1
  br label %8, !llvm.loop !16

18:                                               ; preds = %8
  store i8 0, ptr %.013, align 1
  br label %19

19:                                               ; preds = %2, %18
  ret void
}